target datalayout = "e-m:e-p270:32:32-p271:32:32-p272:64:64-i64:64-i128:128-f80:128-n8:16:32:64-S128"
target triple = "x86_64-pc-linux-gnu"

%struct._zval_struct = type { %union._zend_value, %union.anon, %union.anon.2 }
%union._zend_value = type { i64 }
%union.anon = type { i32 }
%union.anon.2 = type { i32 }
%struct._zend_array = type { %struct._zend_refcounted_h, %union.anon.4, i32, %union.anon.6, i32, i32, i32, i32, i64, ptr }
%struct._zend_refcounted_h = type { i32, %union.anon.3 }
%union.anon.3 = type { i32 }
%union.anon.4 = type { i32 }
%union.anon.6 = type { ptr }
%struct._zend_phpdbg_globals = type { [11 x %struct._zend_array], %struct._zend_array, %struct._zend_array, ptr, ptr, %struct.phpdbg_frame_t, i32, ptr, %struct.phpdbg_lexer_data, ptr, %struct.sigaction, i32, i64, %struct.phpdbg_btree, %struct.phpdbg_btree, %struct._zend_array, %struct._zend_array, %struct._zend_array, %struct._zend_array, ptr, ptr, ptr, i8, ptr, ptr, ptr, i64, ptr, %struct._zval_struct, i32, i32, i8, i8, ptr, ptr, ptr, %struct._zend_array, ptr, ptr, ptr, [3 x %struct.anon.9], ptr, %struct.anon.10, i64, [2 x ptr], [3 x ptr], ptr, i8, ptr, ptr, [500 x i8], i32, %struct.phpdbg_signal_safe_mem, ptr, i64, ptr, i64 }
%struct.phpdbg_frame_t = type { i32, ptr, ptr }
%struct.phpdbg_lexer_data = type { i32, ptr, ptr, ptr, ptr, i32 }
%struct.sigaction = type { %union.anon.8, %struct.__sigset_t, i32, ptr }
%union.anon.8 = type { ptr }
%struct.__sigset_t = type { [16 x i64] }
%struct.phpdbg_btree = type { i64, i64, i8, ptr }
%struct.anon.9 = type { i32 }
%struct.anon.10 = type { i8, i32, i32, ptr, i32 }
%struct.phpdbg_signal_safe_mem = type { ptr, i8, ptr, ptr }
%struct._sapi_globals_struct = type { ptr, %struct.sapi_request_info, %struct.sapi_headers_struct, i64, i8, i8, %struct.stat, ptr, ptr, ptr, i64, i32, i8, double, %struct._zend_array, %struct._zval_struct, %struct._zend_fcall_info_cache, %struct.sapi_request_parse_body_context }
%struct.sapi_request_info = type { ptr, ptr, ptr, i64, ptr, ptr, ptr, ptr, i8, i8, i8, ptr, ptr, ptr, ptr, ptr, ptr, ptr, i32, i32, ptr, i32 }
%struct.sapi_headers_struct = type { %struct._zend_llist, i32, i8, ptr, ptr }
%struct._zend_llist = type { ptr, ptr, i64, i64, ptr, i8, ptr }
%struct.stat = type { i64, i64, i64, i32, i32, i32, i32, i64, i64, i64, i64, %struct.timespec, %struct.timespec, %struct.timespec, [3 x i64] }
%struct.timespec = type { i64, i64 }
%struct._zend_fcall_info_cache = type { ptr, ptr, ptr, ptr, ptr }
%struct.sapi_request_parse_body_context = type { i8, [5 x %struct.anon.17] }
%struct.anon.17 = type { i8, i64 }
%struct._phpdbg_oplog_list = type { ptr, %struct._phpdbg_oplog_entry }
%struct._phpdbg_oplog_entry = type { ptr, ptr, ptr, ptr, ptr, ptr }
%struct._zend_arena = type { ptr, ptr, ptr }

@phpdbg_globals = hidden global %struct._zend_phpdbg_globals zeroinitializer, align 8
@stdout = external global ptr, align 8
@use_mm_wrappers = internal global i8 1, align 1
@sapi_globals = external global %struct._sapi_globals_struct, align 8
@.str.80 = private unnamed_addr constant [22 x i8] c"Script ended normally\00", align 1

; Function Attrs: alwaysinline nounwind uwtable
define internal void @zend_arena_destroy(ptr noundef %0) #6 {
  %2 = alloca ptr, align 8
  %3 = alloca ptr, align 8
  store ptr %0, ptr %2, align 8, !tbaa !91
  br label %4

4:                                                ; preds = %10, %1
  call void @llvm.lifetime.start.p0(i64 8, ptr %3) #22
  %5 = load ptr, ptr %2, align 8, !tbaa !91
  %6 = getelementptr inbounds nuw %struct._zend_arena, ptr %5, i32 0, i32 2
  %7 = load ptr, ptr %6, align 8, !tbaa !95
  store ptr %7, ptr %3, align 8, !tbaa !91
  %8 = load ptr, ptr %2, align 8, !tbaa !91
  call void @_efree(ptr noundef %8)
  %9 = load ptr, ptr %3, align 8, !tbaa !91
  store ptr %9, ptr %2, align 8, !tbaa !91
  call void @llvm.lifetime.end.p0(i64 8, ptr %3) #22
  br label %10

10:                                               ; preds = %4
  %11 = load ptr, ptr %2, align 8, !tbaa !91
  %12 = icmp ne ptr %11, null
  br i1 %12, label %4, label %13

13:                                               ; preds = %10
  ret void
}

; Function Attrs: nounwind uwtable
define internal i32 @zm_shutdown_phpdbg(i32 noundef %0, i32 noundef %1) #0 {
  %3 = alloca i32, align 4
  %4 = alloca i32, align 4
  %5 = alloca ptr, align 8
  %6 = alloca ptr, align 8
  store i32 %0, ptr %3, align 4, !tbaa !98
  store i32 %1, ptr %4, align 4, !tbaa !98
  call void @zend_hash_destroy(ptr noundef getelementptr inbounds nuw (%struct._zend_phpdbg_globals, ptr @phpdbg_globals, i32 0, i32 1))
  call void @phpdbg_destroy_watchpoints()
  %7 = load i64, ptr getelementptr inbounds nuw (%struct._zend_phpdbg_globals, ptr @phpdbg_globals, i32 0, i32 54), align 8, !tbaa !201
  %8 = and i64 %7, 65536
  %9 = icmp ne i64 %8, 0
  br i1 %9, label %13, label %10

10:                                               ; preds = %2
  %11 = load i32, ptr getelementptr inbounds ([3 x %struct.anon.9], ptr getelementptr inbounds nuw (%struct._zend_phpdbg_globals, ptr @phpdbg_globals, i32 0, i32 40), i64 0, i64 1), align 4, !tbaa !203
  %12 = call i32 (i32, i32, ptr, ...) @phpdbg_print(i32 noundef 2, i32 noundef %11, ptr noundef @.str.80)
  br label %13

13:                                               ; preds = %10, %2
  %14 = load i8, ptr @use_mm_wrappers, align 1, !tbaa !45, !range !73, !noundef !74
  %15 = trunc i8 %14 to i1
  br i1 %15, label %16, label %18

16:                                               ; preds = %13
  %17 = call ptr @zend_mm_get_heap()
  store i32 0, ptr %17, align 4, !tbaa !98
  br label %18

18:                                               ; preds = %16, %13
  %19 = load ptr, ptr getelementptr inbounds nuw (%struct._zend_phpdbg_globals, ptr @phpdbg_globals, i32 0, i32 46), align 8, !tbaa !260
  %20 = icmp ne ptr %19, null
  br i1 %20, label %21, label %23

21:                                               ; preds = %18
  %22 = load ptr, ptr getelementptr inbounds nuw (%struct._zend_phpdbg_globals, ptr @phpdbg_globals, i32 0, i32 46), align 8, !tbaa !260
  call void @free(ptr noundef %22) #22
  store ptr null, ptr getelementptr inbounds nuw (%struct._zend_phpdbg_globals, ptr @phpdbg_globals, i32 0, i32 46), align 8, !tbaa !260
  br label %23

23:                                               ; preds = %21, %18
  %24 = load ptr, ptr getelementptr inbounds nuw (%struct._zend_phpdbg_globals, ptr @phpdbg_globals, i32 0, i32 25), align 8, !tbaa !50
  %25 = icmp ne ptr %24, null
  br i1 %25, label %26, label %28

26:                                               ; preds = %23
  %27 = load ptr, ptr getelementptr inbounds nuw (%struct._zend_phpdbg_globals, ptr @phpdbg_globals, i32 0, i32 25), align 8, !tbaa !50
  call void @free(ptr noundef %27) #22
  store ptr null, ptr getelementptr inbounds nuw (%struct._zend_phpdbg_globals, ptr @phpdbg_globals, i32 0, i32 25), align 8, !tbaa !50
  br label %28

28:                                               ; preds = %26, %23
  %29 = load ptr, ptr getelementptr inbounds nuw (%struct._zend_phpdbg_globals, ptr @phpdbg_globals, i32 0, i32 38), align 8, !tbaa !83
  %30 = icmp ne ptr %29, null
  br i1 %30, label %31, label %44

31:                                               ; preds = %28
  call void @llvm.lifetime.start.p0(i64 8, ptr %5) #22
  %32 = load ptr, ptr getelementptr inbounds nuw (%struct._zend_phpdbg_globals, ptr @phpdbg_globals, i32 0, i32 38), align 8, !tbaa !83
  store ptr %32, ptr %5, align 8, !tbaa !84
  br label %33

33:                                               ; preds = %39, %31
  call void @llvm.lifetime.start.p0(i64 8, ptr %6) #22
  %34 = load ptr, ptr %5, align 8, !tbaa !84
  %35 = getelementptr inbounds nuw %struct._phpdbg_oplog_list, ptr %34, i32 0, i32 0
  %36 = load ptr, ptr %35, align 8, !tbaa !86
  store ptr %36, ptr %6, align 8, !tbaa !84
  %37 = load ptr, ptr %5, align 8, !tbaa !84
  call void @_efree(ptr noundef %37)
  %38 = load ptr, ptr %6, align 8, !tbaa !84
  store ptr %38, ptr %5, align 8, !tbaa !84
  call void @llvm.lifetime.end.p0(i64 8, ptr %6) #22
  br label %39

39:                                               ; preds = %33
  %40 = load ptr, ptr %5, align 8, !tbaa !84
  %41 = icmp ne ptr %40, null
  br i1 %41, label %33, label %42

42:                                               ; preds = %39
  %43 = load ptr, ptr getelementptr inbounds nuw (%struct._zend_phpdbg_globals, ptr @phpdbg_globals, i32 0, i32 37), align 8, !tbaa !85
  call void @zend_arena_destroy(ptr noundef %43)
  store ptr null, ptr getelementptr inbounds nuw (%struct._zend_phpdbg_globals, ptr @phpdbg_globals, i32 0, i32 38), align 8, !tbaa !83
  call void @llvm.lifetime.end.p0(i64 8, ptr %5) #22
  br label %44

44:                                               ; preds = %42, %28
  %45 = load ptr, ptr @stdout, align 8, !tbaa !199
  %46 = call i32 @fflush(ptr noundef %45)
  %47 = load ptr, ptr getelementptr inbounds nuw (%struct.sapi_request_info, ptr getelementptr inbounds nuw (%struct._sapi_globals_struct, ptr @sapi_globals, i32 0, i32 1), i32 0, i32 16), align 8, !tbaa !279
  %48 = icmp ne ptr %47, null
  br i1 %48, label %49, label %51

49:                                               ; preds = %44
  %50 = load ptr, ptr getelementptr inbounds nuw (%struct.sapi_request_info, ptr getelementptr inbounds nuw (%struct._sapi_globals_struct, ptr @sapi_globals, i32 0, i32 1), i32 0, i32 16), align 8, !tbaa !279
  call void @free(ptr noundef %50) #22
  store ptr null, ptr getelementptr inbounds nuw (%struct.sapi_request_info, ptr getelementptr inbounds nuw (%struct._sapi_globals_struct, ptr @sapi_globals, i32 0, i32 1), i32 0, i32 16), align 8, !tbaa !279
  br label %51

51:                                               ; preds = %49, %44
  ret i32 0
}