; Function Attrs: nounwind uwtable
define internal noundef i32 @zm_shutdown_phpdbg(i32 %0, i32 %1) #0 {
  tail call void @zend_hash_destroy(ptr noundef nonnull getelementptr inbounds nuw (i8, ptr @phpdbg_globals, i64 616)) #27
  tail call void @phpdbg_destroy_watchpoints() #27
  %3 = load i64, ptr getelementptr inbounds nuw (i8, ptr @phpdbg_globals, i64 2184), align 8, !tbaa !174
  %4 = and i64 %3, 65536
  %.not = icmp eq i64 %4, 0
  br i1 %.not, label %5, label %8

5:                                                ; preds = %2
  %6 = load i32, ptr getelementptr inbounds nuw (i8, ptr @phpdbg_globals, i64 1508), align 4, !tbaa !205
  %7 = tail call i32 (i32, i32, ptr, ...) @phpdbg_print(i32 noundef 2, i32 noundef %6, ptr noundef nonnull @.str.80) #27
  br label %8

8:                                                ; preds = %5, %2
  %9 = load i8, ptr @use_mm_wrappers, align 1, !tbaa !154, !range !235, !noundef !111
  %10 = trunc nuw i8 %9 to i1
  br i1 %10, label %11, label %13

11:                                               ; preds = %8
  %12 = tail call ptr @zend_mm_get_heap() #27
  store i32 0, ptr %12, align 4, !tbaa !156
  br label %13

13:                                               ; preds = %11, %8
  %14 = load ptr, ptr getelementptr inbounds nuw (i8, ptr @phpdbg_globals, i64 1608), align 8, !tbaa !171
  %.not8 = icmp eq ptr %14, null
  br i1 %.not8, label %16, label %15

15:                                               ; preds = %13
  tail call void @free(ptr noundef nonnull %14) #27
  store ptr null, ptr getelementptr inbounds nuw (i8, ptr @phpdbg_globals, i64 1608), align 8, !tbaa !171
  br label %16

16:                                               ; preds = %15, %13
  %17 = load ptr, ptr getelementptr inbounds nuw (i8, ptr @phpdbg_globals, i64 1344), align 8, !tbaa !47
  %.not9 = icmp eq ptr %17, null
  br i1 %.not9, label %19, label %18

18:                                               ; preds = %16
  tail call void @free(ptr noundef nonnull %17) #27
  store ptr null, ptr getelementptr inbounds nuw (i8, ptr @phpdbg_globals, i64 1344), align 8, !tbaa !47
  br label %19

19:                                               ; preds = %18, %16
  %20 = load ptr, ptr getelementptr inbounds nuw (i8, ptr @phpdbg_globals, i64 1488), align 8, !tbaa !80
  %.not10 = icmp eq ptr %20, null
  br i1 %.not10, label %27, label %.preheader

.preheader:                                       ; preds = %19, %.preheader
  %.0 = phi ptr [ %21, %.preheader ], [ %20, %19 ]
  %21 = load ptr, ptr %.0, align 8, !tbaa !86
  tail call void @_efree(ptr noundef nonnull %.0) #27
  %.not11 = icmp eq ptr %21, null
  br i1 %.not11, label %22, label %.preheader

22:                                               ; preds = %.preheader
  %23 = load ptr, ptr getelementptr inbounds nuw (i8, ptr @phpdbg_globals, i64 1480), align 8, !tbaa !85
  br label %24

24:                                               ; preds = %24, %22
  %.0.i = phi ptr [ %23, %22 ], [ %26, %24 ]
  %25 = getelementptr inbounds nuw i8, ptr %.0.i, i64 16
  %26 = load ptr, ptr %25, align 8, !tbaa !84
  tail call void @_efree(ptr noundef %.0.i) #27
  %.not.i = icmp eq ptr %26, null
  br i1 %.not.i, label %zend_arena_destroy.exit, label %24

zend_arena_destroy.exit:                          ; preds = %24
  store ptr null, ptr getelementptr inbounds nuw (i8, ptr @phpdbg_globals, i64 1488), align 8, !tbaa !80
  br label %27

27:                                               ; preds = %zend_arena_destroy.exit, %19
  %28 = load ptr, ptr @stdout, align 8, !tbaa !200
  %29 = tail call i32 @fflush(ptr noundef %28)
  %30 = load ptr, ptr getelementptr inbounds nuw (i8, ptr @sapi_globals, i64 120), align 8, !tbaa !256
  %.not12 = icmp eq ptr %30, null
  br i1 %.not12, label %32, label %31

31:                                               ; preds = %27
  tail call void @free(ptr noundef nonnull %30) #27
  store ptr null, ptr getelementptr inbounds nuw (i8, ptr @sapi_globals, i64 120), align 8, !tbaa !256
  br label %32

32:                                               ; preds = %31, %27
  ret i32 0
}